target datalayout = "e-m:e-p270:32:32-p271:32:32-p272:64:64-i64:64-i128:128-f80:128-n8:16:32:64-S128"
target triple = "x86_64-pc-linux-gnu"

%struct._GtkTreeIter = type { i32, ptr, ptr, ptr }
%struct.sview_job_info_t = type { i32, %struct._GtkTreeIter, i8, i32, ptr, ptr, i32, ptr, i32, ptr, ptr, ptr, ptr, ptr, ptr, ptr }

; Function Attrs: nounwind uwtable
define internal void @_append_task_record(ptr noundef %0, ptr noundef %1, ptr noundef %2, i1 noundef zeroext %3) #0 {
  %5 = alloca ptr, align 8
  %6 = alloca ptr, align 8
  %7 = alloca ptr, align 8
  %8 = alloca i8, align 1
  %9 = alloca %struct._GtkTreeIter, align 8
  store ptr %0, ptr %5, align 8
  store ptr %1, ptr %6, align 8
  store ptr %2, ptr %7, align 8
  %10 = zext i1 %3 to i8
  store i8 %10, ptr %8, align 1
  call void @llvm.lifetime.start.p0(i64 32, ptr %9) #11
  %11 = load ptr, ptr %6, align 8
  %12 = load ptr, ptr %7, align 8
  call void @gtk_tree_store_append(ptr noundef %11, ptr noundef %9, ptr noundef %12)
  %13 = load ptr, ptr %6, align 8
  %14 = load ptr, ptr %5, align 8
  %15 = getelementptr inbounds nuw %struct.sview_job_info_t, ptr %14, i32 0, i32 8
  %16 = load i32, ptr %15, align 8
  call void (ptr, ptr, ...) @gtk_tree_store_set(ptr noundef %13, ptr noundef %9, i32 noundef 0, i32 noundef %16, i32 noundef -1)
  %17 = load ptr, ptr %5, align 8
  %18 = load ptr, ptr %6, align 8
  %19 = load i8, ptr %8, align 1, !range !18, !noundef !19
  %20 = trunc i8 %19 to i1
  call void @_update_job_record(ptr noundef %17, ptr noundef %18, ptr noundef %9, i1 noundef zeroext false, i1 noundef zeroext %20)
  call void @llvm.lifetime.end.p0(i64 32, ptr %9) #11
  ret void
}

; Function Attrs: nounwind uwtable
define internal void @_handle_task_check(ptr noundef %0, ptr noundef %1, ptr noundef %2, ptr noundef %3, ptr noundef %4, i1 noundef zeroext %5) #0 {
  %7 = alloca ptr, align 8
  %8 = alloca ptr, align 8
  %9 = alloca ptr, align 8
  %10 = alloca ptr, align 8
  %11 = alloca ptr, align 8
  %12 = alloca i8, align 1
  %13 = alloca ptr, align 8
  %14 = alloca ptr, align 8
  %15 = alloca i32, align 4
  store ptr %0, ptr %7, align 8
  store ptr %1, ptr %8, align 8
  store ptr %2, ptr %9, align 8
  store ptr %3, ptr %10, align 8
  store ptr %4, ptr %11, align 8
  %16 = zext i1 %5 to i8
  store i8 %16, ptr %12, align 1
  %17 = load ptr, ptr %9, align 8
  %18 = load ptr, ptr %17, align 8
  %19 = icmp ne ptr %18, null
  br i1 %19, label %21, label %20

20:                                               ; preds = %6
  br label %75

21:                                               ; preds = %6
  %22 = load ptr, ptr %9, align 8
  %23 = load ptr, ptr %22, align 8
  %24 = load ptr, ptr %10, align 8
  call void @llvm.memcpy.p0.p0.i64(ptr align 8 %23, ptr align 8 %24, i64 32, i1 false)
  br label %25

25:                                               ; preds = %21
  br label %26

26:                                               ; preds = %25, %73
  call void @llvm.lifetime.start.p0(i64 8, ptr %13) #11
  call void @llvm.lifetime.start.p0(i64 8, ptr %14) #11
  %27 = load ptr, ptr %8, align 8
  %28 = load ptr, ptr %9, align 8
  %29 = load ptr, ptr %28, align 8
  call void (ptr, ptr, ...) @gtk_tree_model_get(ptr noundef %27, ptr noundef %29, i32 noundef 36, ptr noundef %13, i32 noundef -1)
  %30 = load i8, ptr %12, align 1, !range !18, !noundef !19
  %31 = trunc i8 %30 to i1
  br i1 %31, label %32, label %36

32:                                               ; preds = %26
  %33 = load ptr, ptr %7, align 8
  %34 = getelementptr inbounds nuw %struct.sview_job_info_t, ptr %33, i32 0, i32 13
  %35 = load ptr, ptr %34, align 8
  store ptr %35, ptr %14, align 8
  br label %40

36:                                               ; preds = %26
  %37 = load ptr, ptr %7, align 8
  %38 = getelementptr inbounds nuw %struct.sview_job_info_t, ptr %37, i32 0, i32 4
  %39 = load ptr, ptr %38, align 8
  store ptr %39, ptr %14, align 8
  br label %40

40:                                               ; preds = %36, %32
  %41 = load ptr, ptr %13, align 8
  %42 = icmp ne ptr %41, null
  br i1 %42, label %43, label %61

43:                                               ; preds = %40
  %44 = load ptr, ptr %14, align 8
  %45 = icmp ne ptr %44, null
  br i1 %45, label %46, label %61

46:                                               ; preds = %43
  %47 = load ptr, ptr %13, align 8
  %48 = load ptr, ptr %14, align 8
  %49 = call i32 @xstrcmp(ptr noundef %47, ptr noundef %48)
  %50 = icmp ne i32 %49, 0
  br i1 %50, label %61, label %51

51:                                               ; preds = %46
  %52 = load ptr, ptr %7, align 8
  %53 = load ptr, ptr %8, align 8
  %54 = call i64 @gtk_tree_store_get_type() #12
  %55 = call ptr @g_type_check_instance_cast(ptr noundef %53, i64 noundef %54)
  %56 = load ptr, ptr %9, align 8
  %57 = load ptr, ptr %56, align 8
  %58 = load i8, ptr %12, align 1, !range !18, !noundef !19
  %59 = trunc i8 %58 to i1
  call void @_update_job_record(ptr noundef %52, ptr noundef %55, ptr noundef %57, i1 noundef zeroext false, i1 noundef zeroext %59)
  %60 = load ptr, ptr %13, align 8
  call void @g_free(ptr noundef %60)
  store i32 5, ptr %15, align 4
  br label %71

61:                                               ; preds = %46, %43, %40
  %62 = load ptr, ptr %13, align 8
  call void @g_free(ptr noundef %62)
  %63 = load ptr, ptr %8, align 8
  %64 = load ptr, ptr %9, align 8
  %65 = load ptr, ptr %64, align 8
  %66 = call i32 @gtk_tree_model_iter_next(ptr noundef %63, ptr noundef %65)
  %67 = icmp ne i32 %66, 0
  br i1 %67, label %70, label %68

68:                                               ; preds = %61
  %69 = load ptr, ptr %9, align 8
  store ptr null, ptr %69, align 8
  store i32 4, ptr %15, align 4
  br label %71

70:                                               ; preds = %61
  store i32 0, ptr %15, align 4
  br label %71

71:                                               ; preds = %51, %70, %68
  call void @llvm.lifetime.end.p0(i64 8, ptr %14) #11
  call void @llvm.lifetime.end.p0(i64 8, ptr %13) #11
  %72 = load i32, ptr %15, align 4
  switch i32 %72, label %84 [
    i32 0, label %73
    i32 4, label %74
    i32 5, label %83
  ]

73:                                               ; preds = %71
  br label %26, !llvm.loop !46

74:                                               ; preds = %71
  br label %75

75:                                               ; preds = %74, %20
  %76 = load ptr, ptr %7, align 8
  %77 = load ptr, ptr %8, align 8
  %78 = call i64 @gtk_tree_store_get_type() #12
  %79 = call ptr @g_type_check_instance_cast(ptr noundef %77, i64 noundef %78)
  %80 = load ptr, ptr %11, align 8
  %81 = load i8, ptr %12, align 1, !range !18, !noundef !19
  %82 = trunc i8 %81 to i1
  call void @_append_task_record(ptr noundef %76, ptr noundef %79, ptr noundef %80, i1 noundef zeroext %82)
  br label %83

83:                                               ; preds = %75, %71
  ret void

84:                                               ; preds = %71
  unreachable
}