; Function Attrs: nounwind uwtable
define internal fastcc void @_handle_task_check(ptr noundef nonnull %0, ptr noundef %1, ptr noundef nonnull captures(none) %2, ptr noundef nonnull readonly captures(none) %3, ptr noundef nonnull %4, i1 noundef zeroext %5) unnamed_addr #0 {
  %7 = alloca %struct._GtkTreeIter, align 8
  %8 = alloca ptr, align 8
  %9 = load ptr, ptr %2, align 8
  %.not = icmp eq ptr %9, null
  br i1 %.not, label %27, label %10

10:                                               ; preds = %6
  tail call void @llvm.memcpy.p0.p0.i64(ptr noundef nonnull align 8 dereferenceable(32) %9, ptr noundef nonnull align 8 dereferenceable(32) %3, i64 32, i1 false)
  %.022.in.v = select i1 %5, i64 120, i64 48
  %.022.in = getelementptr inbounds nuw i8, ptr %0, i64 %.022.in.v
  br label %11

11:                                               ; preds = %26, %10
  call void @llvm.lifetime.start.p0(i64 8, ptr nonnull %8) #16
  %12 = load ptr, ptr %2, align 8
  call void (ptr, ptr, ...) @gtk_tree_model_get(ptr noundef %1, ptr noundef %12, i32 noundef 36, ptr noundef nonnull %8, i32 noundef -1) #16
  %.022 = load ptr, ptr %.022.in, align 8
  %13 = load ptr, ptr %8, align 8
  %14 = icmp ne ptr %13, null
  %15 = icmp ne ptr %.022, null
  %or.cond = select i1 %14, i1 %15, i1 false
  br i1 %or.cond, label %16, label %22

16:                                               ; preds = %11
  %17 = call i32 @xstrcmp(ptr noundef nonnull %13, ptr noundef nonnull %.022) #16
  %.not25 = icmp eq i32 %17, 0
  br i1 %.not25, label %.thread28, label %._crit_edge

._crit_edge:                                      ; preds = %16
  %.pre = load ptr, ptr %8, align 8
  br label %22

.thread28:                                        ; preds = %16
  %18 = tail call i64 @gtk_tree_store_get_type() #17
  %19 = call ptr @g_type_check_instance_cast(ptr noundef %1, i64 noundef %18) #16
  %20 = load ptr, ptr %2, align 8
  call fastcc void @_update_job_record(ptr noundef %0, ptr noundef %19, ptr noundef %20, i1 noundef zeroext false, i1 noundef zeroext %5)
  %21 = load ptr, ptr %8, align 8
  call void @g_free(ptr noundef %21) #16
  call void @llvm.lifetime.end.p0(i64 8, ptr nonnull %8) #16
  br label %32

22:                                               ; preds = %._crit_edge, %11
  %23 = phi ptr [ %.pre, %._crit_edge ], [ %13, %11 ]
  call void @g_free(ptr noundef %23) #16
  %24 = load ptr, ptr %2, align 8
  %25 = call i32 @gtk_tree_model_iter_next(ptr noundef %1, ptr noundef %24) #16
  %.not26 = icmp eq i32 %25, 0
  br i1 %.not26, label %.thread, label %26

.thread:                                          ; preds = %22
  store ptr null, ptr %2, align 8
  call void @llvm.lifetime.end.p0(i64 8, ptr nonnull %8) #16
  br label %27

26:                                               ; preds = %22
  call void @llvm.lifetime.end.p0(i64 8, ptr nonnull %8) #16
  br label %11

27:                                               ; preds = %.thread, %6
  %28 = tail call i64 @gtk_tree_store_get_type() #17
  %29 = call ptr @g_type_check_instance_cast(ptr noundef %1, i64 noundef %28) #16
  call void @llvm.lifetime.start.p0(i64 32, ptr nonnull %7) #16
  call void @gtk_tree_store_append(ptr noundef %29, ptr noundef nonnull %7, ptr noundef nonnull %4) #16
  %30 = getelementptr inbounds nuw i8, ptr %0, i64 80
  %31 = load i32, ptr %30, align 8
  call void (ptr, ptr, ...) @gtk_tree_store_set(ptr noundef %29, ptr noundef nonnull %7, i32 noundef 0, i32 noundef %31, i32 noundef -1) #16
  call fastcc void @_update_job_record(ptr noundef nonnull %0, ptr noundef %29, ptr noundef nonnull %7, i1 noundef zeroext false, i1 noundef zeroext %5)
  call void @llvm.lifetime.end.p0(i64 32, ptr nonnull %7) #16
  br label %32

32:                                               ; preds = %.thread28, %27
  ret void
}